target datalayout = "e-m:e-p270:32:32-p271:32:32-p272:64:64-i64:64-i128:128-f80:128-n8:16:32:64-S128"
target triple = "x86_64-pc-linux-gnu"

%struct.magic_set = type { [2 x ptr], %struct.cont, %struct.out, i32, i32, i32, i32, i32, ptr, i64, i32, %struct.anon, %union.VALUETYPE, i16, i16, i16, i16, i16, i16, i64, i64, i64 }
%struct.cont = type { i64, ptr }
%struct.out = type { ptr, i64, ptr }
%struct.anon = type { ptr, i64, i64, i64 }
%union.VALUETYPE = type { [2 x i64], [112 x i8] }
%struct.magic = type { i16, i8, i8, i8, i8, i8, i8, i8, i8, i8, i8, i32, i32, i32, %union.anon, %union.VALUETYPE, [64 x i8], [80 x i8], [8 x i8], [64 x i8] }
%union.anon = type { i64 }

@stderr = external global ptr, align 8
@.str.18 = private unnamed_addr constant [26 x i8] c"lhs/off overflow %jd %jd\0A\00", align 1
@.str.19 = private unnamed_addr constant [21 x i8] c"offset overflow %jd\0A\00", align 1

; Function Attrs: nounwind uwtable
define internal i32 @do_ops(ptr noundef %0, ptr noundef %1, ptr noundef %2, i64 noundef %3, i64 noundef %4) #0 {
  %6 = alloca i32, align 4
  %7 = alloca ptr, align 8
  %8 = alloca ptr, align 8
  %9 = alloca ptr, align 8
  %10 = alloca i64, align 8
  %11 = alloca i64, align 8
  %12 = alloca i64, align 8
  store ptr %0, ptr %7, align 8
  store ptr %1, ptr %8, align 8
  store ptr %2, ptr %9, align 8
  store i64 %3, ptr %10, align 8
  store i64 %4, ptr %11, align 8
  %13 = load i64, ptr %10, align 8
  %14 = icmp sge i64 %13, 4294967295
  br i1 %14, label %24, label %15

15:                                               ; preds = %5
  %16 = load i64, ptr %10, align 8
  %17 = icmp sle i64 %16, -2147483648
  br i1 %17, label %24, label %18

18:                                               ; preds = %15
  %19 = load i64, ptr %11, align 8
  %20 = icmp sge i64 %19, 4294967295
  br i1 %20, label %24, label %21

21:                                               ; preds = %18
  %22 = load i64, ptr %11, align 8
  %23 = icmp sle i64 %22, -2147483648
  br i1 %23, label %24, label %36

24:                                               ; preds = %21, %18, %15, %5
  %25 = load ptr, ptr %7, align 8
  %26 = getelementptr inbounds %struct.magic_set, ptr %25, i32 0, i32 6
  %27 = load i32, ptr %26, align 4
  %28 = and i32 %27, 1
  %29 = icmp ne i32 %28, 0
  br i1 %29, label %30, label %35

30:                                               ; preds = %24
  %31 = load ptr, ptr @stderr, align 8
  %32 = load i64, ptr %10, align 8
  %33 = load i64, ptr %11, align 8
  %34 = call i32 (ptr, ptr, ...) @fprintf(ptr noundef %31, ptr noundef @.str.18, i64 noundef %32, i64 noundef %33) #10
  br label %35

35:                                               ; preds = %30, %24
  store i32 1, ptr %6, align 4
  br label %108

36:                                               ; preds = %21
  %37 = load i64, ptr %11, align 8
  %38 = icmp ne i64 %37, 0
  br i1 %38, label %39, label %78

39:                                               ; preds = %36
  %40 = load ptr, ptr %8, align 8
  %41 = getelementptr inbounds %struct.magic, ptr %40, i32 0, i32 7
  %42 = load i8, ptr %41, align 8
  %43 = zext i8 %42 to i32
  %44 = and i32 %43, 7
  switch i32 %44, label %77 [
    i32 0, label %45
    i32 1, label %49
    i32 2, label %53
    i32 3, label %57
    i32 4, label %61
    i32 5, label %65
    i32 6, label %69
    i32 7, label %73
  ]

45:                                               ; preds = %39
  %46 = load i64, ptr %10, align 8
  %47 = load i64, ptr %11, align 8
  %48 = and i64 %46, %47
  store i64 %48, ptr %12, align 8
  br label %77

49:                                               ; preds = %39
  %50 = load i64, ptr %10, align 8
  %51 = load i64, ptr %11, align 8
  %52 = or i64 %50, %51
  store i64 %52, ptr %12, align 8
  br label %77

53:                                               ; preds = %39
  %54 = load i64, ptr %10, align 8
  %55 = load i64, ptr %11, align 8
  %56 = xor i64 %54, %55
  store i64 %56, ptr %12, align 8
  br label %77

57:                                               ; preds = %39
  %58 = load i64, ptr %10, align 8
  %59 = load i64, ptr %11, align 8
  %60 = add nsw i64 %58, %59
  store i64 %60, ptr %12, align 8
  br label %77

61:                                               ; preds = %39
  %62 = load i64, ptr %10, align 8
  %63 = load i64, ptr %11, align 8
  %64 = sub nsw i64 %62, %63
  store i64 %64, ptr %12, align 8
  br label %77

65:                                               ; preds = %39
  %66 = load i64, ptr %10, align 8
  %67 = load i64, ptr %11, align 8
  %68 = mul nsw i64 %66, %67
  store i64 %68, ptr %12, align 8
  br label %77

69:                                               ; preds = %39
  %70 = load i64, ptr %10, align 8
  %71 = load i64, ptr %11, align 8
  %72 = sdiv i64 %70, %71
  store i64 %72, ptr %12, align 8
  br label %77

73:                                               ; preds = %39
  %74 = load i64, ptr %10, align 8
  %75 = load i64, ptr %11, align 8
  %76 = srem i64 %74, %75
  store i64 %76, ptr %12, align 8
  br label %77

77:                                               ; preds = %73, %69, %65, %61, %57, %53, %49, %45, %39
  br label %80

78:                                               ; preds = %36
  %79 = load i64, ptr %10, align 8
  store i64 %79, ptr %12, align 8
  br label %80

80:                                               ; preds = %78, %77
  %81 = load ptr, ptr %8, align 8
  %82 = getelementptr inbounds %struct.magic, ptr %81, i32 0, i32 7
  %83 = load i8, ptr %82, align 8
  %84 = zext i8 %83 to i32
  %85 = and i32 %84, 64
  %86 = icmp ne i32 %85, 0
  br i1 %86, label %87, label %90

87:                                               ; preds = %80
  %88 = load i64, ptr %12, align 8
  %89 = xor i64 %88, -1
  store i64 %89, ptr %12, align 8
  br label %90

90:                                               ; preds = %87, %80
  %91 = load i64, ptr %12, align 8
  %92 = icmp sge i64 %91, 4294967295
  br i1 %92, label %93, label %104

93:                                               ; preds = %90
  %94 = load ptr, ptr %7, align 8
  %95 = getelementptr inbounds %struct.magic_set, ptr %94, i32 0, i32 6
  %96 = load i32, ptr %95, align 4
  %97 = and i32 %96, 1
  %98 = icmp ne i32 %97, 0
  br i1 %98, label %99, label %103

99:                                               ; preds = %93
  %100 = load ptr, ptr @stderr, align 8
  %101 = load i64, ptr %12, align 8
  %102 = call i32 (ptr, ptr, ...) @fprintf(ptr noundef %100, ptr noundef @.str.19, i64 noundef %101) #10
  br label %103

103:                                              ; preds = %99, %93
  store i32 1, ptr %6, align 4
  br label %108

104:                                              ; preds = %90
  %105 = load i64, ptr %12, align 8
  %106 = trunc i64 %105 to i32
  %107 = load ptr, ptr %9, align 8
  store i32 %106, ptr %107, align 4
  store i32 0, ptr %6, align 4
  br label %108

108:                                              ; preds = %104, %103, %35
  %109 = load i32, ptr %6, align 4
  ret i32 %109
}