; Function Attrs: nofree nounwind uwtable
define internal fastcc noundef i32 @do_ops(ptr nocapture noundef readonly %0, ptr nocapture noundef readonly %1, ptr nocapture noundef writeonly %2, i64 noundef %3, i64 noundef %4) unnamed_addr #5 {
  %6 = add i64 %3, -4294967295
  %or.cond = icmp ult i64 %6, -6442450942
  %7 = add i64 %4, -4294967295
  %8 = icmp ult i64 %7, -6442450942
  %or.cond5 = or i1 %or.cond, %8
  br i1 %or.cond5, label %9, label %16

9:                                                ; preds = %5
  %10 = getelementptr inbounds i8, ptr %0, i64 68
  %11 = load i32, ptr %10, align 4
  %12 = and i32 %11, 1
  %.not43 = icmp eq i32 %12, 0
  br i1 %.not43, label %47, label %13

13:                                               ; preds = %9
  %14 = load ptr, ptr @stderr, align 8
  %15 = tail call i32 (ptr, ptr, ...) @fprintf(ptr noundef %14, ptr noundef nonnull @.str.18, i64 noundef %3, i64 noundef %4) #22
  br label %47

16:                                               ; preds = %5
  %.not = icmp eq i64 %4, 0
  %.phi.trans.insert = getelementptr inbounds i8, ptr %1, i64 8
  %.pre = load i8, ptr %.phi.trans.insert, align 8
  br i1 %.not, label %._crit_edge, label %17

17:                                               ; preds = %16
  %18 = and i8 %.pre, 7
  switch i8 %18, label %default.unreachable44 [
    i8 0, label %19
    i8 1, label %21
    i8 2, label %23
    i8 3, label %25
    i8 4, label %27
    i8 5, label %29
    i8 6, label %31
    i8 7, label %33
  ]

19:                                               ; preds = %17
  %20 = and i64 %4, %3
  br label %._crit_edge

21:                                               ; preds = %17
  %22 = or i64 %4, %3
  br label %._crit_edge

23:                                               ; preds = %17
  %24 = xor i64 %4, %3
  br label %._crit_edge

25:                                               ; preds = %17
  %26 = add nsw i64 %4, %3
  br label %._crit_edge

27:                                               ; preds = %17
  %28 = sub nsw i64 %3, %4
  br label %._crit_edge

29:                                               ; preds = %17
  %30 = mul nsw i64 %4, %3
  br label %._crit_edge

31:                                               ; preds = %17
  %32 = sdiv i64 %3, %4
  br label %._crit_edge

33:                                               ; preds = %17
  %34 = srem i64 %3, %4
  br label %._crit_edge

default.unreachable44:                            ; preds = %17
  unreachable

._crit_edge:                                      ; preds = %16, %19, %21, %23, %25, %27, %29, %31, %33
  %.0 = phi i64 [ %34, %33 ], [ %32, %31 ], [ %30, %29 ], [ %28, %27 ], [ %26, %25 ], [ %24, %23 ], [ %22, %21 ], [ %20, %19 ], [ %3, %16 ]
  %35 = shl i8 %.pre, 1
  %sext = ashr i8 %35, 7
  %36 = sext i8 %sext to i64
  %spec.select = xor i64 %.0, %36
  %37 = icmp sgt i64 %spec.select, 4294967294
  br i1 %37, label %38, label %45

38:                                               ; preds = %._crit_edge
  %39 = getelementptr inbounds i8, ptr %0, i64 68
  %40 = load i32, ptr %39, align 4
  %41 = and i32 %40, 1
  %.not42 = icmp eq i32 %41, 0
  br i1 %.not42, label %47, label %42

42:                                               ; preds = %38
  %43 = load ptr, ptr @stderr, align 8
  %44 = tail call i32 (ptr, ptr, ...) @fprintf(ptr noundef %43, ptr noundef nonnull @.str.19, i64 noundef %spec.select) #22
  br label %47

45:                                               ; preds = %._crit_edge
  %46 = trunc i64 %spec.select to i32
  store i32 %46, ptr %2, align 4
  br label %47

47:                                               ; preds = %38, %42, %9, %13, %45
  %.038 = phi i32 [ 0, %45 ], [ 1, %13 ], [ 1, %9 ], [ 1, %42 ], [ 1, %38 ]
  ret i32 %.038
}